target datalayout = "e-m:e-p270:32:32-p271:32:32-p272:64:64-i64:64-i128:128-f80:128-n8:16:32:64-S128"
target triple = "x86_64-pc-linux-gnu"

%class.inputStream = type { ptr, ptr, i32, i8, ptr, i64, i64, i64, i64, i64, i64, [240 x i8] }

; Function Attrs: mustprogress nounwind uwtable
define hidden void @_ZN11inputStream12clear_bufferEv(ptr noundef nonnull align 8 dereferenceable(320) %0) #1 align 2 {
  %2 = alloca ptr, align 8
  store ptr %0, ptr %2, align 8
  %3 = load ptr, ptr %2, align 8
  %4 = getelementptr inbounds %class.inputStream, ptr %3, i32 0, i32 9
  store i64 0, ptr %4, align 8
  %5 = getelementptr inbounds %class.inputStream, ptr %3, i32 0, i32 8
  store i64 0, ptr %5, align 8
  %6 = getelementptr inbounds %class.inputStream, ptr %3, i32 0, i32 7
  store i64 0, ptr %6, align 8
  %7 = getelementptr inbounds %class.inputStream, ptr %3, i32 0, i32 6
  store i64 0, ptr %7, align 8
  %8 = getelementptr inbounds %class.inputStream, ptr %3, i32 0, i32 3
  store i8 0, ptr %8, align 4
  ret void
}

; Function Attrs: mustprogress nounwind uwtable
define hidden void @_ZN11inputStream18set_buffer_contentEmm(ptr noundef nonnull align 8 dereferenceable(320) %0, i64 noundef %1, i64 noundef %2) #1 align 2 {
  %4 = alloca ptr, align 8
  %5 = alloca i64, align 8
  %6 = alloca i64, align 8
  %7 = alloca i64, align 8
  %8 = alloca ptr, align 8
  %9 = alloca i64, align 8
  store ptr %0, ptr %4, align 8
  store i64 %1, ptr %5, align 8
  store i64 %2, ptr %6, align 8
  %10 = load ptr, ptr %4, align 8
  %11 = load i64, ptr %5, align 8
  %12 = load i64, ptr %6, align 8
  %13 = icmp uge i64 %11, %12
  br i1 %13, label %14, label %15

14:                                               ; preds = %3
  call void @_ZN11inputStream12clear_bufferEv(ptr noundef nonnull align 8 dereferenceable(320) %10)
  br label %75

15:                                               ; preds = %3
  %16 = load i64, ptr %6, align 8
  %17 = load i64, ptr %5, align 8
  %18 = sub i64 %16, %17
  store i64 %18, ptr %7, align 8
  %19 = load i64, ptr %5, align 8
  %20 = getelementptr inbounds %class.inputStream, ptr %10, i32 0, i32 7
  store i64 %19, ptr %20, align 8
  %21 = load i64, ptr %6, align 8
  %22 = getelementptr inbounds %class.inputStream, ptr %10, i32 0, i32 6
  store i64 %21, ptr %22, align 8
  %23 = getelementptr inbounds %class.inputStream, ptr %10, i32 0, i32 4
  %24 = load ptr, ptr %23, align 8
  %25 = load i64, ptr %5, align 8
  %26 = getelementptr inbounds i8, ptr %24, i64 %25
  %27 = load i64, ptr %7, align 8
  %28 = call noundef ptr @memchr(ptr noundef %26, i32 noundef 10, i64 noundef %27) #5
  store ptr %28, ptr %8, align 8
  %29 = load ptr, ptr %8, align 8
  %30 = icmp eq ptr %29, null
  br i1 %30, label %31, label %36

31:                                               ; preds = %15
  %32 = load i64, ptr %6, align 8
  %33 = getelementptr inbounds %class.inputStream, ptr %10, i32 0, i32 8
  store i64 %32, ptr %33, align 8
  %34 = getelementptr inbounds %class.inputStream, ptr %10, i32 0, i32 9
  store i64 %32, ptr %34, align 8
  %35 = getelementptr inbounds %class.inputStream, ptr %10, i32 0, i32 3
  store i8 0, ptr %35, align 4
  br label %75

36:                                               ; preds = %15
  %37 = load ptr, ptr %8, align 8
  store i8 0, ptr %37, align 1
  %38 = getelementptr inbounds %class.inputStream, ptr %10, i32 0, i32 10
  %39 = load i64, ptr %38, align 8
  %40 = add i64 %39, 1
  store i64 %40, ptr %38, align 8
  %41 = load ptr, ptr %8, align 8
  %42 = getelementptr inbounds %class.inputStream, ptr %10, i32 0, i32 4
  %43 = load ptr, ptr %42, align 8
  %44 = getelementptr inbounds i8, ptr %43, i64 0
  %45 = ptrtoint ptr %41 to i64
  %46 = ptrtoint ptr %44 to i64
  %47 = sub i64 %45, %46
  store i64 %47, ptr %9, align 8
  %48 = load i64, ptr %9, align 8
  %49 = add i64 %48, 1
  %50 = getelementptr inbounds %class.inputStream, ptr %10, i32 0, i32 9
  store i64 %49, ptr %50, align 8
  %51 = load i64, ptr %9, align 8
  %52 = load i64, ptr %5, align 8
  %53 = icmp ugt i64 %51, %52
  br i1 %53, label %54, label %65

54:                                               ; preds = %36
  %55 = load ptr, ptr %8, align 8
  %56 = getelementptr inbounds i8, ptr %55, i64 -1
  %57 = load i8, ptr %56, align 1
  %58 = sext i8 %57 to i32
  %59 = icmp eq i32 %58, 13
  br i1 %59, label %60, label %65

60:                                               ; preds = %54
  %61 = load ptr, ptr %8, align 8
  %62 = getelementptr inbounds i8, ptr %61, i64 -1
  store i8 0, ptr %62, align 1
  %63 = load i64, ptr %9, align 8
  %64 = add i64 %63, -1
  store i64 %64, ptr %9, align 8
  br label %65

65:                                               ; preds = %60, %54, %36
  %66 = load i64, ptr %9, align 8
  %67 = getelementptr inbounds %class.inputStream, ptr %10, i32 0, i32 8
  store i64 %66, ptr %67, align 8
  %68 = getelementptr inbounds %class.inputStream, ptr %10, i32 0, i32 9
  %69 = load i64, ptr %68, align 8
  %70 = load i64, ptr %9, align 8
  %71 = sub i64 %69, %70
  %72 = trunc i64 %71 to i32
  %73 = trunc i32 %72 to i8
  %74 = getelementptr inbounds %class.inputStream, ptr %10, i32 0, i32 3
  store i8 %73, ptr %74, align 4
  br label %75

75:                                               ; preds = %65, %31, %14
  ret void
}

; Function Attrs: mustprogress nounwind uwtable
define hidden void @_ZN11inputStream8set_doneEv(ptr noundef nonnull align 8 dereferenceable(320) %0) #1 align 2 {
  %2 = alloca ptr, align 8
  %3 = alloca i64, align 8
  store ptr %0, ptr %2, align 8
  %4 = load ptr, ptr %2, align 8
  %5 = getelementptr inbounds %class.inputStream, ptr %4, i32 0, i32 6
  %6 = load i64, ptr %5, align 8
  %7 = getelementptr inbounds %class.inputStream, ptr %4, i32 0, i32 8
  store i64 %6, ptr %7, align 8
  %8 = getelementptr inbounds %class.inputStream, ptr %4, i32 0, i32 7
  store i64 %6, ptr %8, align 8
  store i64 %6, ptr %3, align 8
  %9 = load i64, ptr %3, align 8
  %10 = add i64 %9, 1
  %11 = getelementptr inbounds %class.inputStream, ptr %4, i32 0, i32 9
  store i64 %10, ptr %11, align 8
  %12 = getelementptr inbounds %class.inputStream, ptr %4, i32 0, i32 3
  store i8 0, ptr %12, align 4
  ret void
}

; Function Attrs: mustprogress nounwind uwtable
define linkonce_odr hidden noundef zeroext i1 @_ZNK11inputStream5errorEv(ptr noundef nonnull align 8 dereferenceable(320) %0) #1 comdat align 2 {
  %2 = alloca ptr, align 8
  store ptr %0, ptr %2, align 8
  %3 = load ptr, ptr %2, align 8
  %4 = getelementptr inbounds %class.inputStream, ptr %3, i32 0, i32 2
  %5 = load i32, ptr %4, align 8
  %6 = icmp eq i32 %5, 2
  ret i1 %6
}

; Function Attrs: mustprogress nounwind uwtable
define linkonce_odr hidden noundef zeroext i1 @_ZNK11inputStream12need_to_readEv(ptr noundef nonnull align 8 dereferenceable(320) %0) #1 comdat align 2 {
  %2 = alloca ptr, align 8
  store ptr %0, ptr %2, align 8
  %3 = load ptr, ptr %2, align 8
  %4 = getelementptr inbounds %class.inputStream, ptr %3, i32 0, i32 9
  %5 = load i64, ptr %4, align 8
  %6 = getelementptr inbounds %class.inputStream, ptr %3, i32 0, i32 8
  %7 = load i64, ptr %6, align 8
  %8 = icmp eq i64 %5, %7
  ret i1 %8
}

; Function Attrs: mustprogress nounwind uwtable
define hidden noundef zeroext i1 @_ZN11inputStream11fill_bufferEv(ptr noundef nonnull align 8 dereferenceable(320) %0) #1 align 2 {
  %2 = alloca i1, align 1
  %3 = alloca ptr, align 8
  %4 = alloca i64, align 8
  %5 = alloca i64, align 8
  %6 = alloca i64, align 8
  %7 = alloca i8, align 1
  store ptr %0, ptr %3, align 8
  %8 = load ptr, ptr %3, align 8
  br label %9

9:                                                ; preds = %75, %1
  %10 = call noundef zeroext i1 @_ZNK11inputStream12need_to_readEv(ptr noundef nonnull align 8 dereferenceable(320) %8)
  br i1 %10, label %11, label %76

11:                                               ; preds = %9
  call void @_ZN11inputStream22prepare_to_fill_bufferERmS0_(ptr noundef nonnull align 8 dereferenceable(320) %8, ptr noundef nonnull align 8 dereferenceable(8) %4, ptr noundef nonnull align 8 dereferenceable(8) %5)
  %12 = call noundef zeroext i1 @_ZNK11inputStream5errorEv(ptr noundef nonnull align 8 dereferenceable(320) %8)
  br i1 %12, label %13, label %14

13:                                               ; preds = %11
  store i1 false, ptr %2, align 1
  br label %77

14:                                               ; preds = %11
  store i64 0, ptr %6, align 8
  %15 = getelementptr inbounds %class.inputStream, ptr %8, i32 0, i32 1
  %16 = load ptr, ptr %15, align 8
  %17 = icmp ne ptr %16, null
  br i1 %17, label %18, label %39

18:                                               ; preds = %14
  %19 = getelementptr inbounds %class.inputStream, ptr %8, i32 0, i32 2
  %20 = load i32, ptr %19, align 8
  %21 = icmp eq i32 %20, 0
  br i1 %21, label %22, label %39

22:                                               ; preds = %18
  %23 = getelementptr inbounds %class.inputStream, ptr %8, i32 0, i32 1
  %24 = load ptr, ptr %23, align 8
  %25 = getelementptr inbounds %class.inputStream, ptr %8, i32 0, i32 4
  %26 = load ptr, ptr %25, align 8
  %27 = load i64, ptr %4, align 8
  %28 = getelementptr inbounds i8, ptr %26, i64 %27
  %29 = load i64, ptr %5, align 8
  %30 = load ptr, ptr %24, align 8
  %31 = getelementptr inbounds ptr, ptr %30, i64 0
  %32 = load ptr, ptr %31, align 8
  %33 = call noundef i64 %32(ptr noundef nonnull align 8 dereferenceable(8) %24, ptr noundef %28, i64 noundef %29)
  store i64 %33, ptr %6, align 8
  %34 = load i64, ptr %6, align 8
  %35 = icmp eq i64 %34, 0
  br i1 %35, label %36, label %38

36:                                               ; preds = %22
  %37 = getelementptr inbounds %class.inputStream, ptr %8, i32 0, i32 2
  store i32 1, ptr %37, align 8
  br label %38

38:                                               ; preds = %36, %22
  br label %39

39:                                               ; preds = %38, %18, %14
  store i8 0, ptr %7, align 1
  %40 = load i64, ptr %6, align 8
  %41 = icmp ugt i64 %40, 0
  br i1 %41, label %42, label %46

42:                                               ; preds = %39
  %43 = load i64, ptr %6, align 8
  %44 = load i64, ptr %4, align 8
  %45 = add i64 %44, %43
  store i64 %45, ptr %4, align 8
  br label %60

46:                                               ; preds = %39
  %47 = getelementptr inbounds %class.inputStream, ptr %8, i32 0, i32 7
  %48 = load i64, ptr %47, align 8
  %49 = getelementptr inbounds %class.inputStream, ptr %8, i32 0, i32 8
  %50 = load i64, ptr %49, align 8
  %51 = icmp eq i64 %48, %50
  br i1 %51, label %52, label %53

52:                                               ; preds = %46
  call void @_ZN11inputStream8set_doneEv(ptr noundef nonnull align 8 dereferenceable(320) %8)
  store i1 false, ptr %2, align 1
  br label %77

53:                                               ; preds = %46
  %54 = getelementptr inbounds %class.inputStream, ptr %8, i32 0, i32 4
  %55 = load ptr, ptr %54, align 8
  %56 = load i64, ptr %4, align 8
  %57 = add i64 %56, 1
  store i64 %57, ptr %4, align 8
  %58 = getelementptr inbounds i8, ptr %55, i64 %56
  store i8 10, ptr %58, align 1
  store i8 1, ptr %7, align 1
  br label %59

59:                                               ; preds = %53
  br label %60

60:                                               ; preds = %59, %42
  %61 = getelementptr inbounds %class.inputStream, ptr %8, i32 0, i32 7
  %62 = load i64, ptr %61, align 8
  %63 = load i64, ptr %4, align 8
  call void @_ZN11inputStream18set_buffer_contentEmm(ptr noundef nonnull align 8 dereferenceable(320) %8, i64 noundef %62, i64 noundef %63)
  %64 = call noundef zeroext i1 @_ZNK11inputStream12need_to_readEv(ptr noundef nonnull align 8 dereferenceable(320) %8)
  br i1 %64, label %65, label %66

65:                                               ; preds = %60
  br label %67

66:                                               ; preds = %60
  br label %67

67:                                               ; preds = %66, %65
  %68 = load i8, ptr %7, align 1
  %69 = trunc i8 %68 to i1
  br i1 %69, label %70, label %75

70:                                               ; preds = %67
  %71 = getelementptr inbounds %class.inputStream, ptr %8, i32 0, i32 3
  store i8 0, ptr %71, align 4
  %72 = getelementptr inbounds %class.inputStream, ptr %8, i32 0, i32 6
  %73 = load i64, ptr %72, align 8
  %74 = sub i64 %73, 1
  store i64 %74, ptr %72, align 8
  br label %75

75:                                               ; preds = %70, %67
  br label %9, !llvm.loop !6

76:                                               ; preds = %9
  store i1 true, ptr %2, align 1
  br label %77

77:                                               ; preds = %76, %52, %13
  %78 = load i1, ptr %2, align 1
  ret i1 %78
}