; Function Attrs: mustprogress nounwind uwtable
define hidden noundef zeroext i1 @_ZN11inputStream11fill_bufferEv(ptr noundef nonnull align 8 dereferenceable(320) %0) local_unnamed_addr #0 align 2 {
  %2 = alloca i64, align 8
  %3 = alloca i64, align 8
  %4 = getelementptr inbounds i8, ptr %0, i64 64
  %5 = getelementptr inbounds i8, ptr %0, i64 56
  %6 = load i64, ptr %4, align 8
  %7 = load i64, ptr %5, align 8
  %.not23 = icmp eq i64 %6, %7
  br i1 %.not23, label %.lr.ph, label %.loopexit

.lr.ph:                                           ; preds = %1
  %8 = getelementptr inbounds i8, ptr %0, i64 16
  %9 = getelementptr inbounds i8, ptr %0, i64 8
  %10 = getelementptr inbounds i8, ptr %0, i64 24
  %11 = getelementptr inbounds i8, ptr %0, i64 48
  %12 = getelementptr inbounds i8, ptr %0, i64 40
  %13 = getelementptr inbounds i8, ptr %0, i64 20
  %14 = getelementptr inbounds i8, ptr %0, i64 72
  br label %15

15:                                               ; preds = %.lr.ph, %79
  call void @_ZN11inputStream22prepare_to_fill_bufferERmS0_(ptr noundef nonnull align 8 dereferenceable(320) %0, ptr noundef nonnull align 8 dereferenceable(8) %2, ptr noundef nonnull align 8 dereferenceable(8) %3)
  %16 = load i32, ptr %8, align 8
  %.not25 = icmp ne i32 %16, 2
  br i1 %.not25, label %17, label %.loopexit

17:                                               ; preds = %15
  %18 = load ptr, ptr %9, align 8
  %.not = icmp ne ptr %18, null
  %19 = icmp eq i32 %16, 0
  %or.cond = and i1 %19, %.not
  br i1 %or.cond, label %20, label %32

20:                                               ; preds = %17
  %21 = load ptr, ptr %10, align 8
  %22 = load i64, ptr %2, align 8
  %23 = getelementptr inbounds i8, ptr %21, i64 %22
  %24 = load i64, ptr %3, align 8
  %25 = load ptr, ptr %18, align 8
  %26 = load ptr, ptr %25, align 8
  %27 = tail call noundef i64 %26(ptr noundef nonnull align 8 dereferenceable(8) %18, ptr noundef %23, i64 noundef %24) #10
  %28 = icmp eq i64 %27, 0
  br i1 %28, label %29, label %30

29:                                               ; preds = %20
  store i32 1, ptr %8, align 8
  br label %32

30:                                               ; preds = %20
  %31 = add i64 %22, %27
  store i64 %31, ptr %2, align 8
  br label %44

32:                                               ; preds = %29, %17
  %33 = load i64, ptr %11, align 8
  %34 = load i64, ptr %5, align 8
  %35 = icmp eq i64 %33, %34
  br i1 %35, label %36, label %39

36:                                               ; preds = %32
  %37 = load i64, ptr %12, align 8
  store i64 %37, ptr %5, align 8
  store i64 %37, ptr %11, align 8
  %38 = add i64 %37, 1
  store i64 %38, ptr %4, align 8
  store i8 0, ptr %13, align 4
  br label %.loopexit

39:                                               ; preds = %32
  %40 = load ptr, ptr %10, align 8
  %41 = load i64, ptr %2, align 8
  %42 = add i64 %41, 1
  store i64 %42, ptr %2, align 8
  %43 = getelementptr inbounds i8, ptr %40, i64 %41
  store i8 10, ptr %43, align 1
  br label %44

44:                                               ; preds = %39, %30
  %45 = phi i64 [ %42, %39 ], [ %31, %30 ]
  %.not912 = phi i1 [ true, %39 ], [ false, %30 ]
  %46 = load i64, ptr %11, align 8
  %.not.i = icmp ult i64 %46, %45
  br i1 %.not.i, label %48, label %47

47:                                               ; preds = %44
  store i8 0, ptr %13, align 4
  tail call void @llvm.memset.p0.i64(ptr noundef nonnull align 8 dereferenceable(32) %12, i8 0, i64 32, i1 false)
  br label %_ZN11inputStream18set_buffer_contentEmm.exit

48:                                               ; preds = %44
  %49 = sub i64 %45, %46
  store i64 %45, ptr %12, align 8
  %50 = load ptr, ptr %10, align 8
  %51 = getelementptr inbounds i8, ptr %50, i64 %46
  %52 = tail call noundef ptr @memchr(ptr noundef %51, i32 noundef 10, i64 noundef %49) #9
  %53 = icmp eq ptr %52, null
  br i1 %53, label %54, label %55

54:                                               ; preds = %48
  store i64 %45, ptr %5, align 8
  store i64 %45, ptr %4, align 8
  store i8 0, ptr %13, align 4
  br label %_ZN11inputStream18set_buffer_contentEmm.exit

55:                                               ; preds = %48
  store i8 0, ptr %52, align 1
  %56 = load i64, ptr %14, align 8
  %57 = add i64 %56, 1
  store i64 %57, ptr %14, align 8
  %58 = load ptr, ptr %10, align 8
  %59 = ptrtoint ptr %52 to i64
  %60 = ptrtoint ptr %58 to i64
  %61 = sub i64 %59, %60
  %62 = add i64 %61, 1
  store i64 %62, ptr %4, align 8
  %63 = icmp ugt i64 %61, %46
  br i1 %63, label %64, label %70

64:                                               ; preds = %55
  %65 = getelementptr inbounds i8, ptr %52, i64 -1
  %66 = load i8, ptr %65, align 1
  %67 = icmp eq i8 %66, 13
  br i1 %67, label %68, label %70

68:                                               ; preds = %64
  store i8 0, ptr %65, align 1
  %69 = add i64 %61, -1
  %.pre.i = load i64, ptr %4, align 8
  br label %70

70:                                               ; preds = %68, %64, %55
  %71 = phi i64 [ %.pre.i, %68 ], [ %62, %64 ], [ %62, %55 ]
  %.0.i = phi i64 [ %69, %68 ], [ %61, %64 ], [ %61, %55 ]
  store i64 %.0.i, ptr %5, align 8
  %72 = sub i64 %71, %.0.i
  %73 = trunc i64 %72 to i8
  store i8 %73, ptr %13, align 4
  br label %_ZN11inputStream18set_buffer_contentEmm.exit

_ZN11inputStream18set_buffer_contentEmm.exit:     ; preds = %47, %54, %70
  %74 = phi i64 [ 0, %47 ], [ %45, %54 ], [ %.0.i, %70 ]
  %75 = phi i64 [ 0, %47 ], [ %45, %54 ], [ %71, %70 ]
  br i1 %.not912, label %76, label %79

76:                                               ; preds = %_ZN11inputStream18set_buffer_contentEmm.exit
  store i8 0, ptr %13, align 4
  %77 = load i64, ptr %12, align 8
  %78 = add i64 %77, -1
  store i64 %78, ptr %12, align 8
  br label %79

79:                                               ; preds = %76, %_ZN11inputStream18set_buffer_contentEmm.exit
  %.not24 = icmp eq i64 %75, %74
  br i1 %.not24, label %15, label %.loopexit, !llvm.loop !6

.loopexit:                                        ; preds = %15, %79, %1, %36
  %80 = phi i1 [ false, %36 ], [ true, %1 ], [ %.not25, %79 ], [ %.not25, %15 ]
  ret i1 %80
}